target datalayout = "e-m:e-p270:32:32-p271:32:32-p272:64:64-i64:64-i128:128-f80:128-n8:16:32:64-S128"
target triple = "x86_64-pc-linux-gnu"

%"class.icu_77::UObject" = type { ptr }
%"class.icu_77::NumberFormat" = type <{ %"class.icu_77::Format", i8, [3 x i8], i32, i32, i32, i32, i8, i8, [4 x i16], [2 x i8], i32, [4 x i8] }>
%"class.icu_77::Format" = type { %"class.icu_77::UObject", ptr, ptr }

; Function Attrs: inlinehint mustprogress nounwind uwtable
define internal noundef signext i8 @_ZL9U_FAILURE10UErrorCode(i32 noundef %0) #2 {
  %2 = alloca i32, align 4
  store i32 %0, ptr %2, align 4, !tbaa !15
  %3 = load i32, ptr %2, align 4, !tbaa !15
  %4 = icmp sgt i32 %3, 0
  %5 = zext i1 %4 to i8
  ret i8 %5
}

; Function Attrs: mustprogress uwtable
define noundef i32 @_ZNK6icu_7712NumberFormat10getContextE19UDisplayContextTypeR10UErrorCode(ptr noundef nonnull align 8 dereferenceable(60) %0, i32 noundef %1, ptr noundef nonnull align 4 dereferenceable(4) %2) unnamed_addr #1 align 2 {
  %4 = alloca i32, align 4
  %5 = alloca ptr, align 8
  %6 = alloca i32, align 4
  %7 = alloca ptr, align 8
  store ptr %0, ptr %5, align 8, !tbaa !40
  store i32 %1, ptr %6, align 4, !tbaa !142
  store ptr %2, ptr %7, align 8, !tbaa !22
  %8 = load ptr, ptr %5, align 8
  %9 = load ptr, ptr %7, align 8, !tbaa !22
  %10 = load i32, ptr %9, align 4, !tbaa !15
  %11 = call noundef signext i8 @_ZL9U_FAILURE10UErrorCode(i32 noundef %10)
  %12 = icmp ne i8 %11, 0
  br i1 %12, label %13, label %14

13:                                               ; preds = %3
  store i32 0, ptr %4, align 4
  br label %22

14:                                               ; preds = %3
  %15 = load i32, ptr %6, align 4, !tbaa !142
  %16 = icmp ne i32 %15, 1
  br i1 %16, label %17, label %19

17:                                               ; preds = %14
  %18 = load ptr, ptr %7, align 8, !tbaa !22
  store i32 1, ptr %18, align 4, !tbaa !15
  store i32 0, ptr %4, align 4
  br label %22

19:                                               ; preds = %14
  %20 = getelementptr inbounds nuw %"class.icu_77::NumberFormat", ptr %8, i32 0, i32 11
  %21 = load i32, ptr %20, align 8, !tbaa !53
  store i32 %21, ptr %4, align 4
  br label %22

22:                                               ; preds = %19, %17, %13
  %23 = load i32, ptr %4, align 4
  ret i32 %23
}